target datalayout = "e-m:e-p270:32:32-p271:32:32-p272:64:64-i64:64-i128:128-f80:128-n8:16:32:64-S128"
target triple = "x86_64-pc-linux-gnu"

%"class.std::vector" = type { %"struct.std::_Vector_base" }
%"struct.std::_Vector_base" = type { %"struct.std::_Vector_base<std::__cxx11::basic_string<char>, std::allocator<std::__cxx11::basic_string<char>>>::_Vector_impl" }
%"struct.std::_Vector_base<std::__cxx11::basic_string<char>, std::allocator<std::__cxx11::basic_string<char>>>::_Vector_impl" = type { %"struct.std::_Vector_base<std::__cxx11::basic_string<char>, std::allocator<std::__cxx11::basic_string<char>>>::_Vector_impl_data" }
%"struct.std::_Vector_base<std::__cxx11::basic_string<char>, std::allocator<std::__cxx11::basic_string<char>>>::_Vector_impl_data" = type { ptr, ptr, ptr }
%"class.std::__cxx11::basic_string" = type { %"struct.std::__cxx11::basic_string<char>::_Alloc_hider", i64, %union.anon }
%"struct.std::__cxx11::basic_string<char>::_Alloc_hider" = type { ptr }
%union.anon = type { i64, [8 x i8] }
%class.TransTableL = type { %class.TransTable, i32, i32, i32, i32, i32, i32, %"struct.TransTableL::pageStatsType", [8192 x %"struct.TransTableL::aggrType"], [12 x [4 x ptr]], [12 x [4 x ptr]], ptr, ptr, %"struct.TransTableL::harvestedType", i32, i32 }
%class.TransTable = type { ptr }
%"struct.TransTableL::pageStatsType" = type { i32, i32, i32, i32, i32 }
%"struct.TransTableL::aggrType" = type { [4 x i32], [4 x [4 x i32]] }
%"struct.TransTableL::harvestedType" = type { i32, [1000 x ptr] }
%"struct.TransTableL::distHashType" = type { i32, i32, [32 x %"struct.TransTableL::posSearchType"] }
%"struct.TransTableL::posSearchType" = type { ptr, i64 }

@_ZL7playersB5cxx11 = internal global %"class.std::vector" zeroinitializer, align 8
@.str.7 = private unnamed_addr constant [2 x i8] c"\0A\00", align 1
@.str.21 = private unnamed_addr constant [8 x i8] c", hand \00", align 1
@.str.27 = private unnamed_addr constant [26 x i8] c"Suit histogram for trick \00", align 1
@.str.28 = private unnamed_addr constant [24 x i8] c"Overall suit histogram\0A\00", align 1

; Function Attrs: mustprogress nounwind uwtable
define linkonce_odr noundef nonnull align 8 dereferenceable(32) ptr @_ZNSt6vectorINSt7__cxx1112basic_stringIcSt11char_traitsIcESaIcEEESaIS5_EEixEm(ptr noundef nonnull align 8 dereferenceable(24) %0, i64 noundef %1) #5 comdat align 2 {
  %3 = alloca ptr, align 8
  %4 = alloca i64, align 8
  store ptr %0, ptr %3, align 8
  store i64 %1, ptr %4, align 8
  %5 = load ptr, ptr %3, align 8
  %6 = getelementptr inbounds nuw %"struct.std::_Vector_base", ptr %5, i32 0, i32 0
  %7 = getelementptr inbounds nuw %"struct.std::_Vector_base<std::__cxx11::basic_string<char>, std::allocator<std::__cxx11::basic_string<char>>>::_Vector_impl_data", ptr %6, i32 0, i32 0
  %8 = load ptr, ptr %7, align 8
  %9 = load i64, ptr %4, align 8
  %10 = getelementptr inbounds %"class.std::__cxx11::basic_string", ptr %8, i64 %9
  ret ptr %10
}

; Function Attrs: mustprogress nounwind uwtable
define void @_ZNK11TransTableL14UpdateSuitHistEiiPiS0_RiS1_(ptr noundef nonnull align 8 dereferenceable(664216) %0, i32 noundef %1, i32 noundef %2, ptr noundef %3, ptr noundef %4, ptr noundef nonnull align 4 dereferenceable(4) %5, ptr noundef nonnull align 4 dereferenceable(4) %6) #5 align 2 {
  %8 = alloca ptr, align 8
  %9 = alloca i32, align 4
  %10 = alloca i32, align 4
  %11 = alloca ptr, align 8
  %12 = alloca ptr, align 8
  %13 = alloca ptr, align 8
  %14 = alloca ptr, align 8
  %15 = alloca ptr, align 8
  %16 = alloca i32, align 4
  %17 = alloca i32, align 4
  store ptr %0, ptr %8, align 8
  store i32 %1, ptr %9, align 4
  store i32 %2, ptr %10, align 4
  store ptr %3, ptr %11, align 8
  store ptr %4, ptr %12, align 8
  store ptr %5, ptr %13, align 8
  store ptr %6, ptr %14, align 8
  %18 = load ptr, ptr %8, align 8
  %19 = load ptr, ptr %13, align 8
  store i32 0, ptr %19, align 4
  store i32 0, ptr %16, align 4
  br label %20

20:                                               ; preds = %28, %7
  %21 = load i32, ptr %16, align 4
  %22 = icmp sle i32 %21, 32
  br i1 %22, label %23, label %31

23:                                               ; preds = %20
  %24 = load ptr, ptr %11, align 8
  %25 = load i32, ptr %16, align 4
  %26 = sext i32 %25 to i64
  %27 = getelementptr inbounds i32, ptr %24, i64 %26
  store i32 0, ptr %27, align 4
  br label %28

28:                                               ; preds = %23
  %29 = load i32, ptr %16, align 4
  %30 = add nsw i32 %29, 1
  store i32 %30, ptr %16, align 4
  br label %20, !llvm.loop !45

31:                                               ; preds = %20
  store i32 0, ptr %17, align 4
  br label %32

32:                                               ; preds = %78, %31
  %33 = load i32, ptr %17, align 4
  %34 = icmp slt i32 %33, 256
  br i1 %34, label %35, label %81

35:                                               ; preds = %32
  %36 = getelementptr inbounds nuw %class.TransTableL, ptr %18, i32 0, i32 9
  %37 = load i32, ptr %9, align 4
  %38 = sext i32 %37 to i64
  %39 = getelementptr inbounds [12 x [4 x ptr]], ptr %36, i64 0, i64 %38
  %40 = load i32, ptr %10, align 4
  %41 = sext i32 %40 to i64
  %42 = getelementptr inbounds [4 x ptr], ptr %39, i64 0, i64 %41
  %43 = load ptr, ptr %42, align 8
  %44 = load i32, ptr %17, align 4
  %45 = sext i32 %44 to i64
  %46 = getelementptr inbounds %"struct.TransTableL::distHashType", ptr %43, i64 %45
  store ptr %46, ptr %15, align 8
  %47 = load ptr, ptr %11, align 8
  %48 = load ptr, ptr %15, align 8
  %49 = getelementptr inbounds nuw %"struct.TransTableL::distHashType", ptr %48, i32 0, i32 0
  %50 = load i32, ptr %49, align 8
  %51 = sext i32 %50 to i64
  %52 = getelementptr inbounds i32, ptr %47, i64 %51
  %53 = load i32, ptr %52, align 4
  %54 = add nsw i32 %53, 1
  store i32 %54, ptr %52, align 4
  %55 = load ptr, ptr %12, align 8
  %56 = load ptr, ptr %15, align 8
  %57 = getelementptr inbounds nuw %"struct.TransTableL::distHashType", ptr %56, i32 0, i32 0
  %58 = load i32, ptr %57, align 8
  %59 = sext i32 %58 to i64
  %60 = getelementptr inbounds i32, ptr %55, i64 %59
  %61 = load i32, ptr %60, align 4
  %62 = add nsw i32 %61, 1
  store i32 %62, ptr %60, align 4
  %63 = load ptr, ptr %15, align 8
  %64 = getelementptr inbounds nuw %"struct.TransTableL::distHashType", ptr %63, i32 0, i32 0
  %65 = load i32, ptr %64, align 8
  %66 = load ptr, ptr %15, align 8
  %67 = getelementptr inbounds nuw %"struct.TransTableL::distHashType", ptr %66, i32 0, i32 1
  %68 = load i32, ptr %67, align 4
  %69 = icmp ne i32 %65, %68
  br i1 %69, label %70, label %77

70:                                               ; preds = %35
  %71 = load ptr, ptr %13, align 8
  %72 = load i32, ptr %71, align 4
  %73 = add nsw i32 %72, 1
  store i32 %73, ptr %71, align 4
  %74 = load ptr, ptr %14, align 8
  %75 = load i32, ptr %74, align 4
  %76 = add nsw i32 %75, 1
  store i32 %76, ptr %74, align 4
  br label %77

77:                                               ; preds = %70, %35
  br label %78

78:                                               ; preds = %77
  %79 = load i32, ptr %17, align 4
  %80 = add nsw i32 %79, 1
  store i32 %80, ptr %17, align 4
  br label %32, !llvm.loop !46

81:                                               ; preds = %32
  ret void
}

; Function Attrs: mustprogress uwtable
define void @_ZNK11TransTableL17PrintAllSuitStatsERSt14basic_ofstreamIcSt11char_traitsIcEE(ptr noundef nonnull align 8 dereferenceable(664216) %0, ptr noundef nonnull align 8 dereferenceable(248) %1) unnamed_addr #4 align 2 {
  %3 = alloca ptr, align 8
  %4 = alloca ptr, align 8
  %5 = alloca i32, align 4
  %6 = alloca i32, align 4
  %7 = alloca [33 x i32], align 16
  %8 = alloca [33 x i32], align 16
  %9 = alloca i32, align 4
  %10 = alloca i32, align 4
  %11 = alloca i32, align 4
  store ptr %0, ptr %3, align 8
  store ptr %1, ptr %4, align 8
  %12 = load ptr, ptr %3, align 8
  store i32 0, ptr %6, align 4
  store i32 0, ptr %9, align 4
  br label %13

13:                                               ; preds = %20, %2
  %14 = load i32, ptr %9, align 4
  %15 = icmp sle i32 %14, 32
  br i1 %15, label %16, label %23

16:                                               ; preds = %13
  %17 = load i32, ptr %9, align 4
  %18 = sext i32 %17 to i64
  %19 = getelementptr inbounds [33 x i32], ptr %8, i64 0, i64 %18
  store i32 0, ptr %19, align 4
  br label %20

20:                                               ; preds = %16
  %21 = load i32, ptr %9, align 4
  %22 = add nsw i32 %21, 1
  store i32 %22, ptr %9, align 4
  br label %13, !llvm.loop !47

23:                                               ; preds = %13
  store i32 11, ptr %10, align 4
  br label %24

24:                                               ; preds = %53, %23
  %25 = load i32, ptr %10, align 4
  %26 = icmp sge i32 %25, 1
  br i1 %26, label %27, label %56

27:                                               ; preds = %24
  store i32 0, ptr %11, align 4
  br label %28

28:                                               ; preds = %49, %27
  %29 = load i32, ptr %11, align 4
  %30 = icmp slt i32 %29, 4
  br i1 %30, label %31, label %52

31:                                               ; preds = %28
  %32 = load i32, ptr %10, align 4
  %33 = load i32, ptr %11, align 4
  %34 = getelementptr inbounds [33 x i32], ptr %7, i64 0, i64 0
  %35 = getelementptr inbounds [33 x i32], ptr %8, i64 0, i64 0
  call void @_ZNK11TransTableL14UpdateSuitHistEiiPiS0_RiS1_(ptr noundef nonnull align 8 dereferenceable(664216) %12, i32 noundef %32, i32 noundef %33, ptr noundef %34, ptr noundef %35, ptr noundef nonnull align 4 dereferenceable(4) %5, ptr noundef nonnull align 4 dereferenceable(4) %6)
  %36 = load ptr, ptr %4, align 8
  %37 = call noundef nonnull align 8 dereferenceable(8) ptr @_ZStlsISt11char_traitsIcEERSt13basic_ostreamIcT_ES5_PKc(ptr noundef nonnull align 8 dereferenceable(8) %36, ptr noundef @.str.27)
  %38 = load i32, ptr %10, align 4
  %39 = call noundef nonnull align 8 dereferenceable(8) ptr @_ZNSolsEi(ptr noundef nonnull align 8 dereferenceable(8) %37, i32 noundef %38)
  %40 = call noundef nonnull align 8 dereferenceable(8) ptr @_ZStlsISt11char_traitsIcEERSt13basic_ostreamIcT_ES5_PKc(ptr noundef nonnull align 8 dereferenceable(8) %39, ptr noundef @.str.21)
  %41 = load i32, ptr %11, align 4
  %42 = zext i32 %41 to i64
  %43 = call noundef nonnull align 8 dereferenceable(32) ptr @_ZNSt6vectorINSt7__cxx1112basic_stringIcSt11char_traitsIcESaIcEEESaIS5_EEixEm(ptr noundef nonnull align 8 dereferenceable(24) @_ZL7playersB5cxx11, i64 noundef %42) #3
  %44 = call noundef nonnull align 8 dereferenceable(8) ptr @_ZStlsIcSt11char_traitsIcESaIcEERSt13basic_ostreamIT_T0_ES7_RKNSt7__cxx1112basic_stringIS4_S5_T1_EE(ptr noundef nonnull align 8 dereferenceable(8) %40, ptr noundef nonnull align 8 dereferenceable(32) %43)
  %45 = call noundef nonnull align 8 dereferenceable(8) ptr @_ZStlsISt11char_traitsIcEERSt13basic_ostreamIcT_ES5_PKc(ptr noundef nonnull align 8 dereferenceable(8) %44, ptr noundef @.str.7)
  %46 = load ptr, ptr %4, align 8
  %47 = getelementptr inbounds [33 x i32], ptr %7, i64 0, i64 0
  %48 = load i32, ptr %5, align 4
  call void @_ZNK11TransTableL9PrintHistERSt14basic_ofstreamIcSt11char_traitsIcEEPKiii(ptr noundef nonnull align 8 dereferenceable(664216) %12, ptr noundef nonnull align 8 dereferenceable(248) %46, ptr noundef %47, i32 noundef %48, i32 noundef 32)
  br label %49

49:                                               ; preds = %31
  %50 = load i32, ptr %11, align 4
  %51 = add nsw i32 %50, 1
  store i32 %51, ptr %11, align 4
  br label %28, !llvm.loop !48

52:                                               ; preds = %28
  br label %53

53:                                               ; preds = %52
  %54 = load i32, ptr %10, align 4
  %55 = add nsw i32 %54, -1
  store i32 %55, ptr %10, align 4
  br label %24, !llvm.loop !49

56:                                               ; preds = %24
  %57 = load ptr, ptr %4, align 8
  %58 = call noundef nonnull align 8 dereferenceable(8) ptr @_ZStlsISt11char_traitsIcEERSt13basic_ostreamIcT_ES5_PKc(ptr noundef nonnull align 8 dereferenceable(8) %57, ptr noundef @.str.28)
  %59 = load ptr, ptr %4, align 8
  %60 = getelementptr inbounds [33 x i32], ptr %8, i64 0, i64 0
  %61 = load i32, ptr %6, align 4
  call void @_ZNK11TransTableL9PrintHistERSt14basic_ofstreamIcSt11char_traitsIcEEPKiii(ptr noundef nonnull align 8 dereferenceable(664216) %12, ptr noundef nonnull align 8 dereferenceable(248) %59, ptr noundef %60, i32 noundef %61, i32 noundef 32)
  ret void
}