; Function Attrs: mustprogress uwtable
define void @_ZNK11TransTableL17PrintAllSuitStatsERSt14basic_ofstreamIcSt11char_traitsIcEE(ptr nocapture noundef nonnull readonly align 8 dereferenceable(664216) %0, ptr noundef nonnull align 8 dereferenceable(248) %1) unnamed_addr #21 align 2 {
.preheader23:
  %2 = alloca [33 x i32], align 16
  %3 = alloca [33 x i32], align 16
  call void @llvm.memset.p0.i64(ptr noundef nonnull align 16 dereferenceable(132) %3, i8 0, i64 132, i1 false)
  %4 = getelementptr inbounds nuw i8, ptr %0, i64 655416
  br label %.preheader

.preheader:                                       ; preds = %.preheader23, %29
  %indvars.iv31 = phi i64 [ 11, %.preheader23 ], [ %indvars.iv.next32, %29 ]
  %.02027 = phi i32 [ 0, %.preheader23 ], [ %.3, %29 ]
  %5 = trunc nuw nsw i64 %indvars.iv31 to i32
  br label %6

6:                                                ; preds = %.preheader, %_ZNK11TransTableL14UpdateSuitHistEiiPiS0_RiS1_.exit
  %indvars.iv = phi i64 [ 0, %.preheader ], [ %indvars.iv.next, %_ZNK11TransTableL14UpdateSuitHistEiiPiS0_RiS1_.exit ]
  %.125 = phi i32 [ %.02027, %.preheader ], [ %.3, %_ZNK11TransTableL14UpdateSuitHistEiiPiS0_RiS1_.exit ]
  call void @llvm.memset.p0.i64(ptr noundef nonnull align 16 dereferenceable(132) %2, i8 0, i64 132, i1 false)
  %7 = getelementptr inbounds [12 x [4 x ptr]], ptr %4, i64 0, i64 %indvars.iv31, i64 %indvars.iv
  %8 = load ptr, ptr %7, align 8
  br label %9

9:                                                ; preds = %9, %6
  %.021 = phi i32 [ 0, %6 ], [ %.122, %9 ]
  %.2 = phi i32 [ %.125, %6 ], [ %.3, %9 ]
  %indvars.iv.i = phi i64 [ 0, %6 ], [ %indvars.iv.next.i, %9 ]
  %10 = getelementptr inbounds %"struct.TransTableL::distHashType", ptr %8, i64 %indvars.iv.i
  %11 = load i32, ptr %10, align 8
  %12 = sext i32 %11 to i64
  %13 = getelementptr inbounds i32, ptr %2, i64 %12
  %14 = load i32, ptr %13, align 4
  %15 = add nsw i32 %14, 1
  store i32 %15, ptr %13, align 4
  %16 = getelementptr inbounds i32, ptr %3, i64 %12
  %17 = load i32, ptr %16, align 4
  %18 = add nsw i32 %17, 1
  store i32 %18, ptr %16, align 4
  %19 = getelementptr inbounds nuw i8, ptr %10, i64 4
  %20 = load i32, ptr %19, align 4
  %.not.i = icmp ne i32 %11, %20
  %21 = zext i1 %.not.i to i32
  %.122 = add nuw nsw i32 %.021, %21
  %.3 = add nsw i32 %.2, %21
  %indvars.iv.next.i = add nuw nsw i64 %indvars.iv.i, 1
  %exitcond.not.i = icmp eq i64 %indvars.iv.next.i, 256
  br i1 %exitcond.not.i, label %_ZNK11TransTableL14UpdateSuitHistEiiPiS0_RiS1_.exit, label %9, !llvm.loop !68

_ZNK11TransTableL14UpdateSuitHistEiiPiS0_RiS1_.exit: ; preds = %9
  %22 = tail call noundef nonnull align 8 dereferenceable(8) ptr @_ZStlsISt11char_traitsIcEERSt13basic_ostreamIcT_ES5_PKc(ptr noundef nonnull align 8 dereferenceable(8) %1, ptr noundef nonnull @.str.27)
  %23 = tail call noundef nonnull align 8 dereferenceable(8) ptr @_ZNSolsEi(ptr noundef nonnull align 8 dereferenceable(8) %22, i32 noundef %5)
  %24 = tail call noundef nonnull align 8 dereferenceable(8) ptr @_ZStlsISt11char_traitsIcEERSt13basic_ostreamIcT_ES5_PKc(ptr noundef nonnull align 8 dereferenceable(8) %23, ptr noundef nonnull @.str.21)
  %25 = load ptr, ptr @_ZL7playersB5cxx11, align 8
  %26 = getelementptr inbounds %"class.std::__cxx11::basic_string", ptr %25, i64 %indvars.iv
  %27 = tail call noundef nonnull align 8 dereferenceable(8) ptr @_ZStlsIcSt11char_traitsIcESaIcEERSt13basic_ostreamIT_T0_ES7_RKNSt7__cxx1112basic_stringIS4_S5_T1_EE(ptr noundef nonnull align 8 dereferenceable(8) %24, ptr noundef nonnull align 8 dereferenceable(32) %26)
  %28 = tail call noundef nonnull align 8 dereferenceable(8) ptr @_ZStlsISt11char_traitsIcEERSt13basic_ostreamIcT_ES5_PKc(ptr noundef nonnull align 8 dereferenceable(8) %27, ptr noundef nonnull @.str.7)
  call void @_ZNK11TransTableL9PrintHistERSt14basic_ofstreamIcSt11char_traitsIcEEPKiii(ptr nonnull align 8 poison, ptr noundef nonnull align 8 dereferenceable(248) %1, ptr noundef nonnull %2, i32 noundef %.122, i32 noundef 32)
  %indvars.iv.next = add nuw nsw i64 %indvars.iv, 1
  %exitcond.not = icmp eq i64 %indvars.iv.next, 4
  br i1 %exitcond.not, label %29, label %6, !llvm.loop !69

29:                                               ; preds = %_ZNK11TransTableL14UpdateSuitHistEiiPiS0_RiS1_.exit
  %indvars.iv.next32 = add nsw i64 %indvars.iv31, -1
  %30 = icmp ugt i64 %indvars.iv31, 1
  br i1 %30, label %.preheader, label %31, !llvm.loop !70

31:                                               ; preds = %29
  %32 = tail call noundef nonnull align 8 dereferenceable(8) ptr @_ZStlsISt11char_traitsIcEERSt13basic_ostreamIcT_ES5_PKc(ptr noundef nonnull align 8 dereferenceable(8) %1, ptr noundef nonnull @.str.28)
  call void @_ZNK11TransTableL9PrintHistERSt14basic_ofstreamIcSt11char_traitsIcEEPKiii(ptr nonnull align 8 poison, ptr noundef nonnull align 8 dereferenceable(248) %1, ptr noundef nonnull %3, i32 noundef %.3, i32 noundef 32)
  ret void
}